; Function Attrs: mustprogress nofree norecurse nosync nounwind willreturn memory(read, inaccessiblemem: none) uwtable
define hidden i64 @_ZNK4cvc58internal6theory5arith6linear20LinearEqualityModule22debugBasicAtBoundCountEj(ptr noundef nonnull readonly align 8 captures(none) dereferenceable(456) %0, i32 noundef %1) local_unnamed_addr #10 align 2 {
  %3 = getelementptr inbounds nuw i8, ptr %0, i64 352
  %4 = load ptr, ptr %3, align 8, !tbaa !115
  %5 = getelementptr inbounds nuw i8, ptr %0, i64 8
  %6 = load ptr, ptr %5, align 8, !tbaa !106
  %7 = getelementptr inbounds nuw i8, ptr %6, i64 400
  %8 = zext i32 %1 to i64
  %9 = load ptr, ptr %7, align 8, !tbaa !129
  %10 = getelementptr inbounds nuw i32, ptr %9, i64 %8
  %11 = load i32, ptr %10, align 4, !tbaa !28
  %12 = getelementptr inbounds nuw i8, ptr %4, i64 48
  %13 = zext i32 %11 to i64
  %14 = load ptr, ptr %12, align 8, !tbaa !116
  %15 = getelementptr inbounds nuw %"class.cvc5::internal::theory::arith::linear::BoundsInfo", ptr %14, i64 %13
  %.sroa.0.0.copyload.i = load i64, ptr %15, align 4
  ret i64 %.sroa.0.0.copyload.i
}